target datalayout = "e-m:e-p270:32:32-p271:32:32-p272:64:64-i64:64-i128:128-f80:128-n8:16:32:64-S128"
target triple = "x86_64-pc-linux-gnu"

%struct.expert_field = type { i32, i32 }
%struct.anon.1 = type { ptr, ptr }
%struct._proto_node = type { ptr, ptr, ptr, ptr, ptr, ptr, ptr }
%struct.field_info = type { ptr, i32, i32, i32, i32, i32, i32, ptr, ptr, ptr, i32, i32 }

@hf_ipmi_se_13_data = internal global i32 0, align 4
@hf_ipmi_se_13_parameter = internal global i32 0, align 4
@ett_ipmi_se_13_rev = internal global i32 0, align 4
@ei_ipmi_se_13_request_param_rev = internal global %struct.expert_field zeroinitializer, align 4
@ei_ipmi_se_13_request_param_data = internal global %struct.expert_field zeroinitializer, align 4
@.str.508 = private unnamed_addr constant [9 x i8] c"Reserved\00", align 1
@.str.655 = private unnamed_addr constant [4 x i8] c"OEM\00", align 1
@.str.1132 = private unnamed_addr constant [3 x i8] c"%s\00", align 1
@rs13.byte1 = internal constant [3 x ptr] [ptr @hf_ipmi_se_13_rev_present, ptr @hf_ipmi_se_13_rev_compat, ptr null], align 16
@.str.1161 = private unnamed_addr constant [19 x i8] c"Parameter revision\00", align 1

; Function Attrs: inlinehint nounwind null_pointer_is_valid sspstrong uwtable
define internal void @proto_item_set_generated(ptr noundef %0) #4 {
  %2 = alloca ptr, align 8
  store ptr %0, ptr %2, align 8
  %3 = load ptr, ptr %2, align 8
  %4 = icmp ne ptr %3, null
  br i1 %4, label %5, label %24

5:                                                ; preds = %1
  br label %6

6:                                                ; preds = %5
  %7 = load ptr, ptr %2, align 8
  %8 = getelementptr inbounds nuw %struct._proto_node, ptr %7, i32 0, i32 5
  %9 = load ptr, ptr %8, align 8
  %10 = icmp ne ptr %9, null
  br i1 %10, label %11, label %22

11:                                               ; preds = %6
  %12 = load ptr, ptr %2, align 8
  %13 = getelementptr inbounds nuw %struct._proto_node, ptr %12, i32 0, i32 5
  %14 = load ptr, ptr %13, align 8
  %15 = getelementptr inbounds nuw %struct.field_info, ptr %14, i32 0, i32 6
  %16 = load i32, ptr %15, align 4
  %17 = or i32 %16, 2
  %18 = load ptr, ptr %2, align 8
  %19 = getelementptr inbounds nuw %struct._proto_node, ptr %18, i32 0, i32 5
  %20 = load ptr, ptr %19, align 8
  %21 = getelementptr inbounds nuw %struct.field_info, ptr %20, i32 0, i32 6
  store i32 %17, ptr %21, align 4
  br label %22

22:                                               ; preds = %11, %6
  br label %23

23:                                               ; preds = %22
  br label %24

24:                                               ; preds = %23, %1
  ret void
}

; Function Attrs: null_pointer_is_valid sspstrong uwtable
define internal void @rs13(ptr noundef %0, ptr noundef %1, ptr noundef %2) #0 {
  %4 = alloca ptr, align 8
  %5 = alloca ptr, align 8
  %6 = alloca ptr, align 8
  %7 = alloca ptr, align 8
  %8 = alloca ptr, align 8
  %9 = alloca i32, align 4
  %10 = alloca ptr, align 8
  %11 = alloca i32, align 4
  store ptr %0, ptr %4, align 8
  store ptr %1, ptr %5, align 8
  store ptr %2, ptr %6, align 8
  call void @llvm.lifetime.start.p0(i64 8, ptr %7) #5
  call void @llvm.lifetime.start.p0(i64 8, ptr %8) #5
  call void @llvm.lifetime.start.p0(i64 4, ptr %9) #5
  call void @llvm.lifetime.start.p0(i64 8, ptr %10) #5
  %12 = load ptr, ptr %6, align 8
  %13 = load ptr, ptr %4, align 8
  %14 = load i32, ptr @ett_ipmi_se_13_rev, align 4
  %15 = call ptr @proto_tree_add_bitmask_text(ptr noundef %12, ptr noundef %13, i32 noundef 0, i32 noundef 1, ptr noundef @.str.1161, ptr noundef null, i32 noundef %14, ptr noundef @rs13.byte1, i32 noundef -2147483648, i32 noundef 0)
  store ptr %15, ptr %7, align 8
  %16 = load ptr, ptr %5, align 8
  %17 = call zeroext i1 @ipmi_get_data(ptr noundef %16, i32 noundef 0, ptr noundef %9)
  br i1 %17, label %28, label %18

18:                                               ; preds = %3
  %19 = load ptr, ptr %4, align 8
  %20 = call i32 @tvb_captured_length(ptr noundef %19)
  %21 = icmp ugt i32 %20, 1
  br i1 %21, label %22, label %27

22:                                               ; preds = %18
  %23 = load ptr, ptr %6, align 8
  %24 = load i32, ptr @hf_ipmi_se_13_data, align 4
  %25 = load ptr, ptr %4, align 8
  %26 = call ptr @proto_tree_add_item(ptr noundef %23, i32 noundef %24, ptr noundef %25, i32 noundef 1, i32 noundef -1, i32 noundef 0)
  br label %27

27:                                               ; preds = %22, %18
  store i32 1, ptr %11, align 4
  br label %107

28:                                               ; preds = %3
  %29 = load i32, ptr %9, align 4
  %30 = and i32 %29, 128
  %31 = icmp ne i32 %30, 0
  br i1 %31, label %32, label %40

32:                                               ; preds = %28
  %33 = load ptr, ptr %4, align 8
  %34 = call i32 @tvb_captured_length(ptr noundef %33)
  %35 = icmp ugt i32 %34, 1
  br i1 %35, label %36, label %40

36:                                               ; preds = %32
  %37 = load ptr, ptr %5, align 8
  %38 = load ptr, ptr %7, align 8
  %39 = call ptr @expert_add_info(ptr noundef %37, ptr noundef %38, ptr noundef @ei_ipmi_se_13_request_param_rev)
  br label %53

40:                                               ; preds = %32, %28
  %41 = load i32, ptr %9, align 4
  %42 = and i32 %41, 128
  %43 = icmp ne i32 %42, 0
  br i1 %43, label %52, label %44

44:                                               ; preds = %40
  %45 = load ptr, ptr %4, align 8
  %46 = call i32 @tvb_captured_length(ptr noundef %45)
  %47 = icmp eq i32 %46, 1
  br i1 %47, label %48, label %52

48:                                               ; preds = %44
  %49 = load ptr, ptr %5, align 8
  %50 = load ptr, ptr %7, align 8
  %51 = call ptr @expert_add_info(ptr noundef %49, ptr noundef %50, ptr noundef @ei_ipmi_se_13_request_param_data)
  br label %52

52:                                               ; preds = %48, %44, %40
  br label %53

53:                                               ; preds = %52, %36
  %54 = load i32, ptr %9, align 4
  %55 = and i32 %54, 127
  store i32 %55, ptr %9, align 4
  %56 = load i32, ptr %9, align 4
  %57 = zext i32 %56 to i64
  %58 = icmp ult i64 %57, 16
  br i1 %58, label %59, label %65

59:                                               ; preds = %53
  %60 = load i32, ptr %9, align 4
  %61 = zext i32 %60 to i64
  %62 = getelementptr [16 x %struct.anon.1], ptr @conf_params, i64 0, i64 %61
  %63 = getelementptr inbounds nuw %struct.anon.1, ptr %62, i32 0, i32 1
  %64 = load ptr, ptr %63, align 8
  store ptr %64, ptr %10, align 8
  br label %74

65:                                               ; preds = %53
  %66 = load i32, ptr %9, align 4
  %67 = icmp uge i32 %66, 96
  br i1 %67, label %68, label %72

68:                                               ; preds = %65
  %69 = load i32, ptr %9, align 4
  %70 = icmp ule i32 %69, 127
  br i1 %70, label %71, label %72

71:                                               ; preds = %68
  store ptr @.str.655, ptr %10, align 8
  br label %73

72:                                               ; preds = %68, %65
  store ptr @.str.508, ptr %10, align 8
  br label %73

73:                                               ; preds = %72, %71
  br label %74

74:                                               ; preds = %73, %59
  %75 = load ptr, ptr %6, align 8
  %76 = load i32, ptr @hf_ipmi_se_13_parameter, align 4
  %77 = load ptr, ptr %4, align 8
  %78 = load i32, ptr %9, align 4
  %79 = load ptr, ptr %10, align 8
  %80 = call ptr (ptr, i32, ptr, i32, i32, i32, ptr, ...) @proto_tree_add_uint_format_value(ptr noundef %75, i32 noundef %76, ptr noundef %77, i32 noundef 0, i32 noundef 0, i32 noundef %78, ptr noundef @.str.1132, ptr noundef %79)
  store ptr %80, ptr %7, align 8
  %81 = load ptr, ptr %7, align 8
  call void @proto_item_set_generated(ptr noundef %81)
  %82 = load ptr, ptr %4, align 8
  %83 = call i32 @tvb_captured_length(ptr noundef %82)
  %84 = icmp ugt i32 %83, 1
  br i1 %84, label %85, label %106

85:                                               ; preds = %74
  %86 = load i32, ptr %9, align 4
  %87 = zext i32 %86 to i64
  %88 = icmp ult i64 %87, 16
  br i1 %88, label %89, label %100

89:                                               ; preds = %85
  %90 = load ptr, ptr %4, align 8
  %91 = call ptr @tvb_new_subset_remaining(ptr noundef %90, i32 noundef 1)
  store ptr %91, ptr %8, align 8
  %92 = load i32, ptr %9, align 4
  %93 = zext i32 %92 to i64
  %94 = getelementptr [16 x %struct.anon.1], ptr @conf_params, i64 0, i64 %93
  %95 = getelementptr inbounds nuw %struct.anon.1, ptr %94, i32 0, i32 0
  %96 = load ptr, ptr %95, align 16
  %97 = load ptr, ptr %8, align 8
  %98 = load ptr, ptr %5, align 8
  %99 = load ptr, ptr %6, align 8
  call void %96(ptr noundef %97, ptr noundef %98, ptr noundef %99)
  br label %105

100:                                              ; preds = %85
  %101 = load ptr, ptr %6, align 8
  %102 = load i32, ptr @hf_ipmi_se_13_data, align 4
  %103 = load ptr, ptr %4, align 8
  %104 = call ptr @proto_tree_add_item(ptr noundef %101, i32 noundef %102, ptr noundef %103, i32 noundef 1, i32 noundef -1, i32 noundef 0)
  br label %105

105:                                              ; preds = %100, %89
  br label %106

106:                                              ; preds = %105, %74
  store i32 0, ptr %11, align 4
  br label %107

107:                                              ; preds = %106, %27
  call void @llvm.lifetime.end.p0(i64 8, ptr %10) #5
  call void @llvm.lifetime.end.p0(i64 4, ptr %9) #5
  call void @llvm.lifetime.end.p0(i64 8, ptr %8) #5
  call void @llvm.lifetime.end.p0(i64 8, ptr %7) #5
  %108 = load i32, ptr %11, align 4
  switch i32 %108, label %110 [
    i32 0, label %109
    i32 1, label %109
  ]

109:                                              ; preds = %107, %107
  ret void

110:                                              ; preds = %107
  unreachable
}