; Function Attrs: null_pointer_is_valid sspstrong uwtable
define internal void @rs13(ptr noundef %0, ptr noundef %1, ptr noundef %2) #0 {
  %4 = alloca i32, align 4
  call void @llvm.lifetime.start.p0(i64 4, ptr nonnull %4) #4
  %5 = load i32, ptr @ett_ipmi_se_13_rev, align 4
  %6 = tail call ptr @proto_tree_add_bitmask_text(ptr noundef %2, ptr noundef %0, i32 noundef 0, i32 noundef 1, ptr noundef nonnull @.str.1161, ptr noundef null, i32 noundef %5, ptr noundef nonnull @rs13.byte1, i32 noundef -2147483648, i32 noundef 0)
  %7 = call zeroext i1 @ipmi_get_data(ptr noundef %1, i32 noundef 0, ptr noundef nonnull %4)
  br i1 %7, label %14, label %8

8:                                                ; preds = %3
  %9 = call i32 @tvb_captured_length(ptr noundef %0)
  %10 = icmp ugt i32 %9, 1
  br i1 %10, label %11, label %61

11:                                               ; preds = %8
  %12 = load i32, ptr @hf_ipmi_se_13_data, align 4
  %13 = call ptr @proto_tree_add_item(ptr noundef %2, i32 noundef %12, ptr noundef %0, i32 noundef 1, i32 noundef -1, i32 noundef 0)
  br label %61

14:                                               ; preds = %3
  %15 = load i32, ptr %4, align 4
  %16 = and i32 %15, 128
  %.not = icmp eq i32 %16, 0
  br i1 %.not, label %20, label %17

17:                                               ; preds = %14
  %18 = call i32 @tvb_captured_length(ptr noundef %0)
  %19 = icmp ugt i32 %18, 1
  br i1 %19, label %.sink.split, label %._crit_edge

._crit_edge:                                      ; preds = %17
  %.pre = load i32, ptr %4, align 4
  br label %20

20:                                               ; preds = %._crit_edge, %14
  %21 = phi i32 [ %.pre, %._crit_edge ], [ %15, %14 ]
  %22 = and i32 %21, 128
  %.not25 = icmp eq i32 %22, 0
  br i1 %.not25, label %23, label %27

23:                                               ; preds = %20
  %24 = call i32 @tvb_captured_length(ptr noundef %0)
  %25 = icmp eq i32 %24, 1
  br i1 %25, label %.sink.split, label %27

.sink.split:                                      ; preds = %23, %17
  %ei_ipmi_se_13_request_param_data.sink = phi ptr [ @ei_ipmi_se_13_request_param_rev, %17 ], [ @ei_ipmi_se_13_request_param_data, %23 ]
  %26 = call ptr @expert_add_info(ptr noundef %1, ptr noundef %6, ptr noundef nonnull %ei_ipmi_se_13_request_param_data.sink)
  br label %27

27:                                               ; preds = %.sink.split, %20, %23
  %28 = load i32, ptr %4, align 4
  %29 = and i32 %28, 127
  store i32 %29, ptr %4, align 4
  %30 = icmp samesign ult i32 %29, 16
  br i1 %30, label %31, label %35

31:                                               ; preds = %27
  %32 = zext nneg i32 %29 to i64
  %33 = getelementptr [16 x %struct.anon.1], ptr @conf_params, i64 0, i64 %32, i32 1
  %34 = load ptr, ptr %33, align 8
  br label %37

35:                                               ; preds = %27
  %36 = icmp samesign ugt i32 %29, 95
  %.str.655..str.508 = select i1 %36, ptr @.str.655, ptr @.str.508
  br label %37

37:                                               ; preds = %35, %31
  %.0 = phi ptr [ %34, %31 ], [ %.str.655..str.508, %35 ]
  %38 = load i32, ptr @hf_ipmi_se_13_parameter, align 4
  %39 = call ptr (ptr, i32, ptr, i32, i32, i32, ptr, ...) @proto_tree_add_uint_format_value(ptr noundef %2, i32 noundef %38, ptr noundef %0, i32 noundef 0, i32 noundef 0, i32 noundef %29, ptr noundef nonnull @.str.1132, ptr noundef %.0)
  %.not.i = icmp eq ptr %39, null
  br i1 %.not.i, label %proto_item_set_generated.exit, label %40

40:                                               ; preds = %37
  %41 = getelementptr inbounds nuw i8, ptr %39, i64 40
  %42 = load ptr, ptr %41, align 8
  %.not5.i = icmp eq ptr %42, null
  br i1 %.not5.i, label %proto_item_set_generated.exit, label %43

43:                                               ; preds = %40
  %44 = getelementptr inbounds nuw i8, ptr %42, i64 28
  %45 = load i32, ptr %44, align 4
  %46 = or i32 %45, 2
  store i32 %46, ptr %44, align 4
  br label %proto_item_set_generated.exit

proto_item_set_generated.exit:                    ; preds = %37, %40, %43
  %47 = call i32 @tvb_captured_length(ptr noundef %0)
  %48 = icmp ugt i32 %47, 1
  br i1 %48, label %49, label %61

49:                                               ; preds = %proto_item_set_generated.exit
  %50 = load i32, ptr %4, align 4
  %51 = icmp ult i32 %50, 16
  br i1 %51, label %52, label %58

52:                                               ; preds = %49
  %53 = call ptr @tvb_new_subset_remaining(ptr noundef %0, i32 noundef 1)
  %54 = load i32, ptr %4, align 4
  %55 = zext i32 %54 to i64
  %56 = getelementptr [16 x %struct.anon.1], ptr @conf_params, i64 0, i64 %55
  %57 = load ptr, ptr %56, align 16
  call void %57(ptr noundef %53, ptr noundef %1, ptr noundef %2)
  br label %61

58:                                               ; preds = %49
  %59 = load i32, ptr @hf_ipmi_se_13_data, align 4
  %60 = call ptr @proto_tree_add_item(ptr noundef %2, i32 noundef %59, ptr noundef %0, i32 noundef 1, i32 noundef -1, i32 noundef 0)
  br label %61

61:                                               ; preds = %proto_item_set_generated.exit, %58, %52, %8, %11
  call void @llvm.lifetime.end.p0(i64 4, ptr nonnull %4) #4
  ret void
}